; Function Attrs: nofree norecurse nosync nounwind uwtable
define range(i64 0, 4294967296) i64 @zfp_decode_block_strided_int64_3(ptr noundef readonly captures(none) %0, ptr noundef writeonly captures(none) %1, i64 noundef %2, i64 noundef %3, i64 noundef %4) local_unnamed_addr #0 {
  %6 = alloca [64 x i64], align 256
  call void @llvm.lifetime.start.p0(i64 512, ptr nonnull %6) #6
  %7 = call i64 @zfp_decode_block_int64_3(ptr noundef %0, ptr noundef nonnull %6)
  %8 = shl nsw i64 %2, 2
  %9 = sub nsw i64 %3, %8
  %10 = shl nsw i64 %3, 2
  %11 = sub nsw i64 %4, %10
  br label %.preheader21.i

.preheader21.i:                                   ; preds = %20, %5
  %.030.i = phi i32 [ 0, %5 ], [ %21, %20 ]
  %.01729.i = phi ptr [ %6, %5 ], [ %13, %20 ]
  %.01828.i = phi ptr [ %1, %5 ], [ %22, %20 ]
  br label %.preheader.i

.preheader.i:                                     ; preds = %17, %.preheader21.i
  %.01527.i = phi i32 [ 0, %.preheader21.i ], [ %18, %17 ]
  %.126.i = phi ptr [ %.01729.i, %.preheader21.i ], [ %13, %17 ]
  %.11925.i = phi ptr [ %.01828.i, %.preheader21.i ], [ %19, %17 ]
  br label %12

12:                                               ; preds = %12, %.preheader.i
  %.01624.i = phi i32 [ 0, %.preheader.i ], [ %15, %12 ]
  %.223.i = phi ptr [ %.126.i, %.preheader.i ], [ %13, %12 ]
  %.22022.i = phi ptr [ %.11925.i, %.preheader.i ], [ %16, %12 ]
  %13 = getelementptr inbounds nuw i8, ptr %.223.i, i64 8
  %14 = load i64, ptr %.223.i, align 8, !tbaa !21
  store i64 %14, ptr %.22022.i, align 8, !tbaa !21
  %15 = add nuw nsw i32 %.01624.i, 1
  %16 = getelementptr inbounds i64, ptr %.22022.i, i64 %2
  %exitcond.not.i = icmp eq i32 %15, 4
  br i1 %exitcond.not.i, label %17, label %12

17:                                               ; preds = %12
  %18 = add nuw nsw i32 %.01527.i, 1
  %19 = getelementptr inbounds i64, ptr %16, i64 %9
  %exitcond33.not.i = icmp eq i32 %18, 4
  br i1 %exitcond33.not.i, label %20, label %.preheader.i

20:                                               ; preds = %17
  %21 = add nuw nsw i32 %.030.i, 1
  %22 = getelementptr inbounds i64, ptr %19, i64 %11
  %exitcond34.not.i = icmp eq i32 %21, 4
  br i1 %exitcond34.not.i, label %scatter_int64_3.exit, label %.preheader21.i

scatter_int64_3.exit:                             ; preds = %20
  call void @llvm.lifetime.end.p0(i64 512, ptr nonnull %6) #6
  ret i64 %7
}